target datalayout = "e-m:e-p270:32:32-p271:32:32-p272:64:64-i64:64-i128:128-f80:128-n8:16:32:64-S128"
target triple = "x86_64-pc-linux-gnu"

%"class.std::basic_ostream" = type { ptr, %"class.std::basic_ios" }
%"class.std::basic_ios" = type { %"class.std::ios_base", ptr, i8, i8, ptr, ptr, ptr, ptr }
%"class.std::ios_base" = type { ptr, i64, i64, i32, i32, i32, ptr, %"struct.std::ios_base::_Words", [8 x %"struct.std::ios_base::_Words"], i32, ptr, %"class.std::locale" }
%"struct.std::ios_base::_Words" = type { ptr, i64 }
%"class.std::locale" = type { ptr }
%"class.std::basic_ostream.base" = type { ptr }
%"class.std::basic_streambuf" = type { ptr, ptr, ptr, ptr, ptr, ptr, ptr, %"class.std::locale" }
%"struct.ade::passes::PassContext" = type { ptr }
%"class.std::basic_ofstream" = type { %"class.std::basic_ostream.base", %"class.std::basic_filebuf", %"class.std::basic_ios" }
%"class.std::basic_filebuf" = type { %"class.std::basic_streambuf", %union.pthread_mutex_t, %"class.std::__basic_file", i32, %struct.__mbstate_t, %struct.__mbstate_t, %struct.__mbstate_t, ptr, i64, i8, i8, i8, i8, ptr, ptr, i8, ptr, ptr, i64, ptr, ptr }
%union.pthread_mutex_t = type { %struct.__pthread_mutex_s }
%struct.__pthread_mutex_s = type { i32, i32, i32, i32, i32, i16, i16, %struct.__pthread_internal_list }
%struct.__pthread_internal_list = type { ptr, ptr }
%"class.std::__basic_file" = type <{ ptr, i8, [7 x i8] }>
%struct.__mbstate_t = type { i32, %union.anon.127 }
%union.anon.127 = type { i32 }

@_ZSt4cout = external global %"class.std::basic_ostream", align 8

; Function Attrs: mustprogress uwtable
define hidden void @_ZN2cv5gimpl6passes7dumpDotERN3ade6passes11PassContextERSo(ptr noundef nonnull align 8 dereferenceable(8) %0, ptr noundef nonnull align 8 dereferenceable(8) %1) #4 {
  %3 = alloca ptr, align 8
  %4 = alloca ptr, align 8
  store ptr %0, ptr %3, align 8
  store ptr %1, ptr %4, align 8
  %5 = load ptr, ptr %3, align 8
  %6 = getelementptr inbounds %"struct.ade::passes::PassContext", ptr %5, i32 0, i32 0
  %7 = load ptr, ptr %6, align 8
  %8 = load ptr, ptr %4, align 8
  call void @_ZN2cv5gimpl6passes7dumpDotERKN3ade5GraphERSo(ptr noundef nonnull align 8 dereferenceable(168) %7, ptr noundef nonnull align 8 dereferenceable(8) %8)
  ret void
}

; Function Attrs: mustprogress uwtable
define hidden void @_ZN2cv5gimpl6passes13dumpDotToFileERN3ade6passes11PassContextERKNSt7__cxx1112basic_stringIcSt11char_traitsIcESaIcEEE(ptr noundef nonnull align 8 dereferenceable(8) %0, ptr noundef nonnull align 8 dereferenceable(32) %1) #4 personality ptr @__gxx_personality_v0 {
  %3 = alloca ptr, align 8
  %4 = alloca ptr, align 8
  %5 = alloca %"class.std::basic_ofstream", align 8
  %6 = alloca ptr, align 8
  %7 = alloca i32, align 4
  store ptr %0, ptr %3, align 8
  store ptr %1, ptr %4, align 8
  %8 = load ptr, ptr %4, align 8
  call void @_ZNSt14basic_ofstreamIcSt11char_traitsIcEEC1ERKNSt7__cxx1112basic_stringIcS1_SaIcEEESt13_Ios_Openmode(ptr noundef nonnull align 8 dereferenceable(248) %5, ptr noundef nonnull align 8 dereferenceable(32) %8, i32 noundef 16)
  %9 = invoke noundef zeroext i1 @_ZNSt14basic_ofstreamIcSt11char_traitsIcEE7is_openEv(ptr noundef nonnull align 8 dereferenceable(248) %5)
          to label %10 unwind label %16

10:                                               ; preds = %2
  br i1 %9, label %11, label %20

11:                                               ; preds = %10
  %12 = load ptr, ptr %3, align 8
  invoke void @_ZN2cv5gimpl6passes7dumpDotERN3ade6passes11PassContextERSo(ptr noundef nonnull align 8 dereferenceable(8) %12, ptr noundef nonnull align 8 dereferenceable(8) %5)
          to label %13 unwind label %16

13:                                               ; preds = %11
  %14 = invoke noundef nonnull align 8 dereferenceable(8) ptr @_ZNSolsEPFRSoS_E(ptr noundef nonnull align 8 dereferenceable(8) %5, ptr noundef @_ZSt4endlIcSt11char_traitsIcEERSt13basic_ostreamIT_T0_ES6_)
          to label %15 unwind label %16

15:                                               ; preds = %13
  br label %20

16:                                               ; preds = %13, %11, %2
  %17 = landingpad { ptr, i32 }
          cleanup
  %18 = extractvalue { ptr, i32 } %17, 0
  store ptr %18, ptr %6, align 8
  %19 = extractvalue { ptr, i32 } %17, 1
  store i32 %19, ptr %7, align 4
  call void @_ZNSt14basic_ofstreamIcSt11char_traitsIcEED1Ev(ptr noundef nonnull align 8 dereferenceable(248) %5) #3
  br label %21

20:                                               ; preds = %15, %10
  call void @_ZNSt14basic_ofstreamIcSt11char_traitsIcEED1Ev(ptr noundef nonnull align 8 dereferenceable(248) %5) #3
  ret void

21:                                               ; preds = %16
  %22 = load ptr, ptr %6, align 8
  %23 = load i32, ptr %7, align 4
  %24 = insertvalue { ptr, i32 } poison, ptr %22, 0
  %25 = insertvalue { ptr, i32 } %24, i32 %23, 1
  resume { ptr, i32 } %25
}

; Function Attrs: mustprogress uwtable
define hidden void @_ZN2cv5gimpl6passes13dumpDotStdoutERN3ade6passes11PassContextE(ptr noundef nonnull align 8 dereferenceable(8) %0) #4 {
  %2 = alloca ptr, align 8
  store ptr %0, ptr %2, align 8
  %3 = load ptr, ptr %2, align 8
  call void @_ZN2cv5gimpl6passes7dumpDotERN3ade6passes11PassContextERSo(ptr noundef nonnull align 8 dereferenceable(8) %3, ptr noundef nonnull align 8 dereferenceable(8) @_ZSt4cout)
  ret void
}

; Function Attrs: mustprogress uwtable
define hidden void @_ZN2cv5gimpl6passes9dumpGraphERN3ade6passes11PassContextERKNSt7__cxx1112basic_stringIcSt11char_traitsIcESaIcEEE(ptr noundef nonnull align 8 dereferenceable(8) %0, ptr noundef nonnull align 8 dereferenceable(32) %1) #4 {
  %3 = alloca ptr, align 8
  %4 = alloca ptr, align 8
  store ptr %0, ptr %3, align 8
  store ptr %1, ptr %4, align 8
  %5 = load ptr, ptr %4, align 8
  %6 = call noundef zeroext i1 @_ZNKSt7__cxx1112basic_stringIcSt11char_traitsIcESaIcEE5emptyEv(ptr noundef nonnull align 8 dereferenceable(32) %5) #3
  br i1 %6, label %7, label %9

7:                                                ; preds = %2
  %8 = load ptr, ptr %3, align 8
  call void @_ZN2cv5gimpl6passes13dumpDotStdoutERN3ade6passes11PassContextE(ptr noundef nonnull align 8 dereferenceable(8) %8)
  br label %12

9:                                                ; preds = %2
  %10 = load ptr, ptr %3, align 8
  %11 = load ptr, ptr %4, align 8
  call void @_ZN2cv5gimpl6passes13dumpDotToFileERN3ade6passes11PassContextERKNSt7__cxx1112basic_stringIcSt11char_traitsIcESaIcEEE(ptr noundef nonnull align 8 dereferenceable(8) %10, ptr noundef nonnull align 8 dereferenceable(32) %11)
  br label %12

12:                                               ; preds = %9, %7
  ret void
}