; Function Attrs: mustprogress uwtable
define hidden void @_ZN2cv5gimpl6passes9dumpGraphERN3ade6passes11PassContextERKNSt7__cxx1112basic_stringIcSt11char_traitsIcESaIcEEE(ptr nocapture noundef nonnull readonly align 8 dereferenceable(8) %0, ptr noundef nonnull align 8 dereferenceable(32) %1) local_unnamed_addr #3 personality ptr @__gxx_personality_v0 {
  %3 = alloca %"class.std::basic_ofstream", align 8
  %4 = tail call noundef zeroext i1 @_ZNKSt7__cxx1112basic_stringIcSt11char_traitsIcESaIcEE5emptyEv(ptr noundef nonnull align 8 dereferenceable(32) %1) #19
  br i1 %4, label %5, label %7

5:                                                ; preds = %2
  %6 = load ptr, ptr %0, align 8
  tail call void @_ZN2cv5gimpl6passes7dumpDotERKN3ade5GraphERSo(ptr noundef nonnull align 8 dereferenceable(168) %6, ptr noundef nonnull align 8 dereferenceable(8) @_ZSt4cout)
  br label %15

7:                                                ; preds = %2
  call void @llvm.lifetime.start.p0(i64 512, ptr nonnull %3)
  call void @_ZNSt14basic_ofstreamIcSt11char_traitsIcEEC1ERKNSt7__cxx1112basic_stringIcS1_SaIcEEESt13_Ios_Openmode(ptr noundef nonnull align 8 dereferenceable(248) %3, ptr noundef nonnull align 8 dereferenceable(32) %1, i32 noundef 16)
  %8 = invoke noundef zeroext i1 @_ZNSt14basic_ofstreamIcSt11char_traitsIcEE7is_openEv(ptr noundef nonnull align 8 dereferenceable(248) %3)
          to label %9 unwind label %13

9:                                                ; preds = %7
  br i1 %8, label %10, label %_ZN2cv5gimpl6passes13dumpDotToFileERN3ade6passes11PassContextERKNSt7__cxx1112basic_stringIcSt11char_traitsIcESaIcEEE.exit

10:                                               ; preds = %9
  %11 = load ptr, ptr %0, align 8
  invoke void @_ZN2cv5gimpl6passes7dumpDotERKN3ade5GraphERSo(ptr noundef nonnull align 8 dereferenceable(168) %11, ptr noundef nonnull align 8 dereferenceable(8) %3)
          to label %_ZN2cv5gimpl6passes7dumpDotERN3ade6passes11PassContextERSo.exit.i unwind label %13

_ZN2cv5gimpl6passes7dumpDotERN3ade6passes11PassContextERSo.exit.i: ; preds = %10
  %12 = invoke noundef nonnull align 8 dereferenceable(8) ptr @_ZNSolsEPFRSoS_E(ptr noundef nonnull align 8 dereferenceable(8) %3, ptr noundef nonnull @_ZSt4endlIcSt11char_traitsIcEERSt13basic_ostreamIT_T0_ES6_)
          to label %_ZN2cv5gimpl6passes13dumpDotToFileERN3ade6passes11PassContextERKNSt7__cxx1112basic_stringIcSt11char_traitsIcESaIcEEE.exit unwind label %13

13:                                               ; preds = %_ZN2cv5gimpl6passes7dumpDotERN3ade6passes11PassContextERSo.exit.i, %10, %7
  %14 = landingpad { ptr, i32 }
          cleanup
  call void @_ZNSt14basic_ofstreamIcSt11char_traitsIcEED1Ev(ptr noundef nonnull align 8 dereferenceable(248) %3) #19
  resume { ptr, i32 } %14

_ZN2cv5gimpl6passes13dumpDotToFileERN3ade6passes11PassContextERKNSt7__cxx1112basic_stringIcSt11char_traitsIcESaIcEEE.exit: ; preds = %9, %_ZN2cv5gimpl6passes7dumpDotERN3ade6passes11PassContextERSo.exit.i
  call void @_ZNSt14basic_ofstreamIcSt11char_traitsIcEED1Ev(ptr noundef nonnull align 8 dereferenceable(248) %3) #19
  call void @llvm.lifetime.end.p0(i64 512, ptr nonnull %3)
  br label %15

15:                                               ; preds = %_ZN2cv5gimpl6passes13dumpDotToFileERN3ade6passes11PassContextERKNSt7__cxx1112basic_stringIcSt11char_traitsIcESaIcEEE.exit, %5
  ret void
}